target datalayout = "e-m:e-p270:32:32-p271:32:32-p272:64:64-i64:64-i128:128-f80:128-n8:16:32:64-S128"
target triple = "x86_64-pc-linux-gnu"

%struct.uv_pipe_s = type { ptr, ptr, i32, ptr, [2 x ptr], %union.anon, ptr, i32, i64, ptr, ptr, ptr, ptr, %struct.uv__io_s, [2 x ptr], [2 x ptr], ptr, i32, i32, ptr, i32, ptr }
%union.anon = type { [4 x ptr] }
%struct.uv__io_s = type { ptr, [2 x ptr], [2 x ptr], i32, i32, i32 }
%struct.sockaddr_un = type { i16, [108 x i8] }
%union.__CONST_SOCKADDR_ARG = type { ptr }

; Function Attrs: nounwind uwtable
define dso_local i32 @uv_pipe_bind(ptr noundef %0, ptr noundef %1) #0 {
  %3 = alloca i32, align 4
  %4 = alloca ptr, align 8
  %5 = alloca ptr, align 8
  %6 = alloca %struct.sockaddr_un, align 2
  %7 = alloca ptr, align 8
  %8 = alloca i32, align 4
  %9 = alloca i32, align 4
  %10 = alloca i32, align 4
  %11 = alloca %union.__CONST_SOCKADDR_ARG, align 8
  store ptr %0, ptr %4, align 8, !tbaa !9
  store ptr %1, ptr %5, align 8, !tbaa !24
  call void @llvm.lifetime.start.p0(i64 110, ptr %6) #8
  call void @llvm.lifetime.start.p0(i64 8, ptr %7) #8
  store ptr null, ptr %7, align 8, !tbaa !24
  call void @llvm.lifetime.start.p0(i64 4, ptr %8) #8
  store i32 -1, ptr %8, align 4, !tbaa !11
  call void @llvm.lifetime.start.p0(i64 4, ptr %9) #8
  %12 = load ptr, ptr %4, align 8, !tbaa !9
  %13 = getelementptr inbounds nuw %struct.uv_pipe_s, ptr %12, i32 0, i32 13
  %14 = getelementptr inbounds nuw %struct.uv__io_s, ptr %13, i32 0, i32 5
  %15 = load i32, ptr %14, align 8, !tbaa !25
  %16 = icmp sge i32 %15, 0
  br i1 %16, label %17, label %18

17:                                               ; preds = %2
  store i32 -22, ptr %3, align 4
  store i32 1, ptr %10, align 4
  br label %73

18:                                               ; preds = %2
  %19 = load ptr, ptr %4, align 8, !tbaa !9
  %20 = getelementptr inbounds nuw %struct.uv_pipe_s, ptr %19, i32 0, i32 7
  %21 = load i32, ptr %20, align 8, !tbaa !26
  %22 = and i32 %21, 3
  %23 = icmp ne i32 %22, 0
  br i1 %23, label %24, label %25

24:                                               ; preds = %18
  store i32 -22, ptr %3, align 4
  store i32 1, ptr %10, align 4
  br label %73

25:                                               ; preds = %18
  %26 = load ptr, ptr %5, align 8, !tbaa !24
  %27 = call ptr @uv__strdup(ptr noundef %26)
  store ptr %27, ptr %7, align 8, !tbaa !24
  %28 = load ptr, ptr %7, align 8, !tbaa !24
  %29 = icmp eq ptr %28, null
  br i1 %29, label %30, label %31

30:                                               ; preds = %25
  store i32 -12, ptr %3, align 4
  store i32 1, ptr %10, align 4
  br label %73

31:                                               ; preds = %25
  store ptr null, ptr %5, align 8, !tbaa !24
  %32 = call i32 @uv__socket(i32 noundef 1, i32 noundef 1, i32 noundef 0)
  store i32 %32, ptr %9, align 4, !tbaa !11
  %33 = load i32, ptr %9, align 4, !tbaa !11
  %34 = icmp slt i32 %33, 0
  br i1 %34, label %35, label %36

35:                                               ; preds = %31
  br label %70

36:                                               ; preds = %31
  %37 = load i32, ptr %9, align 4, !tbaa !11
  store i32 %37, ptr %8, align 4, !tbaa !11
  call void @llvm.memset.p0.i64(ptr align 2 %6, i8 0, i64 110, i1 false)
  %38 = getelementptr inbounds nuw %struct.sockaddr_un, ptr %6, i32 0, i32 1
  %39 = getelementptr inbounds [108 x i8], ptr %38, i64 0, i64 0
  %40 = load ptr, ptr %7, align 8, !tbaa !24
  %41 = call i64 @uv__strscpy(ptr noundef %39, ptr noundef %40, i64 noundef 108)
  %42 = getelementptr inbounds nuw %struct.sockaddr_un, ptr %6, i32 0, i32 0
  store i16 1, ptr %42, align 2, !tbaa !27
  %43 = load i32, ptr %8, align 4, !tbaa !11
  store ptr %6, ptr %11, align 8, !tbaa !30
  %44 = getelementptr inbounds nuw %union.__CONST_SOCKADDR_ARG, ptr %11, i32 0, i32 0
  %45 = load ptr, ptr %44, align 8
  %46 = call i32 @bind(i32 noundef %43, ptr %45, i32 noundef 110) #8
  %47 = icmp ne i32 %46, 0
  br i1 %47, label %48, label %58

48:                                               ; preds = %36
  %49 = call ptr @__errno_location() #9
  %50 = load i32, ptr %49, align 4, !tbaa !11
  %51 = sub nsw i32 0, %50
  store i32 %51, ptr %9, align 4, !tbaa !11
  %52 = load i32, ptr %9, align 4, !tbaa !11
  %53 = icmp eq i32 %52, -2
  br i1 %53, label %54, label %55

54:                                               ; preds = %48
  store i32 -13, ptr %9, align 4, !tbaa !11
  br label %55

55:                                               ; preds = %54, %48
  %56 = load i32, ptr %8, align 4, !tbaa !11
  %57 = call i32 @uv__close(i32 noundef %56)
  br label %70

58:                                               ; preds = %36
  %59 = load ptr, ptr %4, align 8, !tbaa !9
  %60 = getelementptr inbounds nuw %struct.uv_pipe_s, ptr %59, i32 0, i32 7
  %61 = load i32, ptr %60, align 8, !tbaa !26
  %62 = or i32 %61, 8192
  store i32 %62, ptr %60, align 8, !tbaa !26
  %63 = load ptr, ptr %7, align 8, !tbaa !24
  %64 = load ptr, ptr %4, align 8, !tbaa !9
  %65 = getelementptr inbounds nuw %struct.uv_pipe_s, ptr %64, i32 0, i32 21
  store ptr %63, ptr %65, align 8, !tbaa !22
  %66 = load i32, ptr %8, align 4, !tbaa !11
  %67 = load ptr, ptr %4, align 8, !tbaa !9
  %68 = getelementptr inbounds nuw %struct.uv_pipe_s, ptr %67, i32 0, i32 13
  %69 = getelementptr inbounds nuw %struct.uv__io_s, ptr %68, i32 0, i32 5
  store i32 %66, ptr %69, align 8, !tbaa !25
  store i32 0, ptr %3, align 4
  store i32 1, ptr %10, align 4
  br label %73

70:                                               ; preds = %55, %35
  %71 = load ptr, ptr %7, align 8, !tbaa !24
  call void @uv__free(ptr noundef %71)
  %72 = load i32, ptr %9, align 4, !tbaa !11
  store i32 %72, ptr %3, align 4
  store i32 1, ptr %10, align 4
  br label %73

73:                                               ; preds = %70, %58, %30, %24, %17
  call void @llvm.lifetime.end.p0(i64 4, ptr %9) #8
  call void @llvm.lifetime.end.p0(i64 4, ptr %8) #8
  call void @llvm.lifetime.end.p0(i64 8, ptr %7) #8
  call void @llvm.lifetime.end.p0(i64 110, ptr %6) #8
  %74 = load i32, ptr %3, align 4
  ret i32 %74
}