; Function Attrs: nounwind uwtable
define dso_local i32 @uv_pipe_bind(ptr noundef captures(none) %0, ptr noundef %1) local_unnamed_addr #0 {
  %3 = alloca %struct.sockaddr_un, align 2
  call void @llvm.lifetime.start.p0(i64 110, ptr nonnull %3) #11
  %4 = getelementptr inbounds nuw i8, ptr %0, i64 184
  %5 = load i32, ptr %4, align 8, !tbaa !18
  %6 = icmp sgt i32 %5, -1
  br i1 %6, label %32, label %7

7:                                                ; preds = %2
  %8 = getelementptr inbounds nuw i8, ptr %0, i64 88
  %9 = load i32, ptr %8, align 8, !tbaa !19
  %10 = and i32 %9, 3
  %.not = icmp eq i32 %10, 0
  br i1 %.not, label %11, label %32

11:                                               ; preds = %7
  %12 = tail call ptr @uv__strdup(ptr noundef %1) #11
  %13 = icmp eq ptr %12, null
  br i1 %13, label %32, label %14

14:                                               ; preds = %11
  %15 = tail call i32 @uv__socket(i32 noundef 1, i32 noundef 1, i32 noundef 0) #11
  %16 = icmp slt i32 %15, 0
  br i1 %16, label %31, label %17

17:                                               ; preds = %14
  call void @llvm.memset.p0.i64(ptr noundef nonnull align 2 dereferenceable(110) %3, i8 0, i64 110, i1 false)
  %18 = getelementptr inbounds nuw i8, ptr %3, i64 2
  %19 = call i64 @uv__strscpy(ptr noundef nonnull %18, ptr noundef nonnull %12, i64 noundef 108) #11
  store i16 1, ptr %3, align 2, !tbaa !20
  %20 = call i32 @bind(i32 noundef %15, ptr nonnull %3, i32 noundef 110) #11
  %.not20 = icmp eq i32 %20, 0
  br i1 %.not20, label %27, label %21

21:                                               ; preds = %17
  %22 = tail call ptr @__errno_location() #12
  %23 = load i32, ptr %22, align 4, !tbaa !23
  %24 = sub nsw i32 0, %23
  %25 = icmp eq i32 %23, 2
  %spec.store.select = select i1 %25, i32 -13, i32 %24
  %26 = call i32 @uv__close(i32 noundef %15) #11
  br label %31

27:                                               ; preds = %17
  %28 = load i32, ptr %8, align 8, !tbaa !19
  %29 = or i32 %28, 8192
  store i32 %29, ptr %8, align 8, !tbaa !19
  %30 = getelementptr inbounds nuw i8, ptr %0, i64 256
  store ptr %12, ptr %30, align 8, !tbaa !4
  store i32 %15, ptr %4, align 8, !tbaa !18
  br label %32

31:                                               ; preds = %14, %21
  %.017 = phi i32 [ %15, %14 ], [ %spec.store.select, %21 ]
  call void @uv__free(ptr noundef nonnull %12) #11
  br label %32

32:                                               ; preds = %11, %7, %2, %31, %27
  %.0 = phi i32 [ %.017, %31 ], [ 0, %27 ], [ -22, %2 ], [ -22, %7 ], [ -12, %11 ]
  call void @llvm.lifetime.end.p0(i64 110, ptr nonnull %3) #11
  ret i32 %.0
}